; Function Attrs: mustprogress nounwind uwtable
define hidden void @_ZN6hermes3hbc7HBCISel32generateHBCCreateEnvironmentInstEPNS_24HBCCreateEnvironmentInstEPNS_10BasicBlockE(ptr nocapture noundef nonnull readonly align 8 dereferenceable(392) %this, ptr noundef %Inst, ptr nocapture readnone %next) local_unnamed_addr #0 align 2 {
entry:
  %0 = icmp eq ptr %Inst, null
  %add.ptr = getelementptr inbounds i8, ptr %Inst, i64 16
  %spec.select = select i1 %0, ptr null, ptr %add.ptr
  %1 = load i8, ptr %spec.select, align 8
  %2 = add i8 %1, -2
  %3 = icmp ult i8 %2, 107
  br i1 %3, label %if.then.i, label %if.else.i

if.then.i:                                        ; preds = %entry
  %RA_.i = getelementptr inbounds i8, ptr %this, i64 16
  %4 = load ptr, ptr %RA_.i, align 8
  %call2.i = tail call i32 @_ZN6hermes17RegisterAllocator11getRegisterEPNS_5ValueE(ptr noundef nonnull align 8 dereferenceable(1952) %4, ptr noundef nonnull %spec.select) #19
  br label %_ZN6hermes3hbc7HBCISel11encodeValueEPNS_5ValueE.exit

if.else.i:                                        ; preds = %entry
  %cmp.i.i.i.i.i.i.i.i = icmp eq i8 %1, 124
  tail call void @llvm.assume(i1 %cmp.i.i.i.i.i.i.i.i)
  %call6.i = tail call noundef i32 @_ZNK6hermes8Variable22getIndexInVariableListEv(ptr noundef nonnull align 8 dereferenceable(65) %spec.select) #19
  br label %_ZN6hermes3hbc7HBCISel11encodeValueEPNS_5ValueE.exit

_ZN6hermes3hbc7HBCISel11encodeValueEPNS_5ValueE.exit: ; preds = %if.then.i, %if.else.i
  %retval.0.i = phi i32 [ %call2.i, %if.then.i ], [ %call6.i, %if.else.i ]
  %BCFGen_ = getelementptr inbounds i8, ptr %this, i64 8
  %5 = load ptr, ptr %BCFGen_, align 8
  %conv = zext i32 %retval.0.i to i64
  %call2 = tail call noundef i32 @_ZN6hermes3hbc28BytecodeInstructionGenerator21emitCreateEnvironmentEl(ptr noundef nonnull align 8 dereferenceable(25) %5, i64 noundef %conv)
  ret void
}